target datalayout = "e-m:e-p270:32:32-p271:32:32-p272:64:64-i64:64-i128:128-f80:128-n8:16:32:64-S128"
target triple = "x86_64-pc-linux-gnu"

%struct.AVThreadMessageQueue = type { ptr, %union.pthread_mutex_t, %union.pthread_cond_t, %union.pthread_cond_t, i32, i32, i32, ptr }
%union.pthread_mutex_t = type { %struct.__pthread_mutex_s }
%struct.__pthread_mutex_s = type { i32, i32, i32, i32, i32, i16, i16, %struct.__pthread_internal_list }
%struct.__pthread_internal_list = type { ptr, ptr }
%union.pthread_cond_t = type { %struct.__pthread_cond_s }
%struct.__pthread_cond_s = type { %union.__atomic_wide_counter, %union.__atomic_wide_counter, [2 x i32], [2 x i32], i32, i32, [2 x i32] }
%union.__atomic_wide_counter = type { i64 }

; Function Attrs: nounwind uwtable
define void @av_thread_message_flush(ptr noundef %0) #0 {
  %2 = alloca ptr, align 8
  %3 = alloca i64, align 8
  store ptr %0, ptr %2, align 8, !tbaa !12
  call void @llvm.lifetime.start.p0(i64 8, ptr %3) #4
  %4 = load ptr, ptr %2, align 8, !tbaa !12
  %5 = getelementptr inbounds nuw %struct.AVThreadMessageQueue, ptr %4, i32 0, i32 1
  %6 = call i32 @pthread_mutex_lock(ptr noundef %5) #4
  %7 = load ptr, ptr %2, align 8, !tbaa !12
  %8 = getelementptr inbounds nuw %struct.AVThreadMessageQueue, ptr %7, i32 0, i32 0
  %9 = load ptr, ptr %8, align 8, !tbaa !14
  %10 = call i64 @av_fifo_can_read(ptr noundef %9)
  store i64 %10, ptr %3, align 8, !tbaa !20
  %11 = load ptr, ptr %2, align 8, !tbaa !12
  %12 = getelementptr inbounds nuw %struct.AVThreadMessageQueue, ptr %11, i32 0, i32 7
  %13 = load ptr, ptr %12, align 8, !tbaa !19
  %14 = icmp ne ptr %13, null
  br i1 %14, label %15, label %21

15:                                               ; preds = %1
  %16 = load ptr, ptr %2, align 8, !tbaa !12
  %17 = getelementptr inbounds nuw %struct.AVThreadMessageQueue, ptr %16, i32 0, i32 0
  %18 = load ptr, ptr %17, align 8, !tbaa !14
  %19 = load ptr, ptr %2, align 8, !tbaa !12
  %20 = call i32 @av_fifo_read_to_cb(ptr noundef %18, ptr noundef @free_func_wrap, ptr noundef %19, ptr noundef %3)
  br label %21

21:                                               ; preds = %15, %1
  %22 = load ptr, ptr %2, align 8, !tbaa !12
  %23 = getelementptr inbounds nuw %struct.AVThreadMessageQueue, ptr %22, i32 0, i32 3
  %24 = call i32 @pthread_cond_broadcast(ptr noundef %23) #4
  %25 = load ptr, ptr %2, align 8, !tbaa !12
  %26 = getelementptr inbounds nuw %struct.AVThreadMessageQueue, ptr %25, i32 0, i32 1
  %27 = call i32 @pthread_mutex_unlock(ptr noundef %26) #4
  call void @llvm.lifetime.end.p0(i64 8, ptr %3) #4
  ret void
}