; Function Attrs: nounwind uwtable
define void @av_thread_message_flush(ptr noundef %0) local_unnamed_addr #0 {
  %2 = alloca i64, align 8
  call void @llvm.lifetime.start.p0(i64 8, ptr nonnull %2) #5
  %3 = getelementptr inbounds nuw i8, ptr %0, i64 8
  %4 = tail call i32 @pthread_mutex_lock(ptr noundef nonnull %3) #5
  %5 = load ptr, ptr %0, align 8, !tbaa !4
  %6 = tail call i64 @av_fifo_can_read(ptr noundef %5) #5
  store i64 %6, ptr %2, align 8, !tbaa !15
  %7 = getelementptr inbounds nuw i8, ptr %0, i64 160
  %8 = load ptr, ptr %7, align 8, !tbaa !14
  %.not = icmp eq ptr %8, null
  br i1 %.not, label %12, label %9

9:                                                ; preds = %1
  %10 = load ptr, ptr %0, align 8, !tbaa !4
  %11 = call i32 @av_fifo_read_to_cb(ptr noundef %10, ptr noundef nonnull @free_func_wrap, ptr noundef nonnull %0, ptr noundef nonnull %2) #5
  br label %12

12:                                               ; preds = %9, %1
  %13 = getelementptr inbounds nuw i8, ptr %0, i64 96
  %14 = call i32 @pthread_cond_broadcast(ptr noundef nonnull %13) #5
  %15 = call i32 @pthread_mutex_unlock(ptr noundef nonnull %3) #5
  call void @llvm.lifetime.end.p0(i64 8, ptr nonnull %2) #5
  ret void
}